target datalayout = "e-m:e-p270:32:32-p271:32:32-p272:64:64-i64:64-i128:128-f80:128-n8:16:32:64-S128"
target triple = "x86_64-pc-linux-gnu"

%struct.eio_handle_components = type { i32, [2 x i32], %union.pthread_mutex_t, i64, i16, ptr, ptr }
%union.pthread_mutex_t = type { %struct.__pthread_mutex_s }
%struct.__pthread_mutex_s = type { i32, i32, i32, i32, i32, i16, i16, %struct.__pthread_internal_list }
%struct.__pthread_internal_list = type { ptr, ptr }

@.str = private unnamed_addr constant [6 x i8] c"eio.c\00", align 1
@__func__.eio_handle_create = private unnamed_addr constant [18 x i8] c"eio_handle_create\00", align 1
@.str.1 = private unnamed_addr constant [13 x i8] c"%s: pipe: %m\00", align 1
@.str.2 = private unnamed_addr constant [29 x i8] c"%s: pthread_mutex_init(): %m\00", align 1

; Function Attrs: nounwind uwtable
define dso_local ptr @eio_handle_create(i16 noundef zeroext %0) #0 {
  %2 = alloca ptr, align 8
  %3 = alloca i16, align 2
  %4 = alloca ptr, align 8
  %5 = alloca i32, align 4
  %6 = alloca i32, align 4
  store i16 %0, ptr %3, align 2
  call void @llvm.lifetime.start.p0(i64 8, ptr %4) #7
  %7 = call ptr @slurm_xcalloc(i64 noundef 1, i64 noundef 88, i1 noundef zeroext true, i1 noundef zeroext false, ptr noundef @.str, i32 noundef 112, ptr noundef @__func__.eio_handle_create)
  store ptr %7, ptr %4, align 8
  %8 = load ptr, ptr %4, align 8
  %9 = getelementptr inbounds nuw %struct.eio_handle_components, ptr %8, i32 0, i32 0
  store i32 925200, ptr %9, align 8
  %10 = load ptr, ptr %4, align 8
  %11 = getelementptr inbounds nuw %struct.eio_handle_components, ptr %10, i32 0, i32 1
  %12 = getelementptr inbounds [2 x i32], ptr %11, i64 0, i64 0
  %13 = call i32 @pipe2(ptr noundef %12, i32 noundef 524288) #7
  %14 = icmp slt i32 %13, 0
  br i1 %14, label %15, label %18

15:                                               ; preds = %1
  %16 = call i32 (ptr, ...) @error(ptr noundef @.str.1, ptr noundef @__func__.eio_handle_create)
  %17 = load ptr, ptr %4, align 8
  call void @eio_handle_destroy(ptr noundef %17)
  store ptr null, ptr %2, align 8
  store i32 1, ptr %5, align 4
  br label %52

18:                                               ; preds = %1
  %19 = load ptr, ptr %4, align 8
  %20 = getelementptr inbounds nuw %struct.eio_handle_components, ptr %19, i32 0, i32 1
  %21 = getelementptr inbounds [2 x i32], ptr %20, i64 0, i64 0
  %22 = load i32, ptr %21, align 4
  call void @fd_set_nonblocking(i32 noundef %22)
  %23 = call ptr @list_create(ptr noundef @eio_obj_destroy)
  %24 = load ptr, ptr %4, align 8
  %25 = getelementptr inbounds nuw %struct.eio_handle_components, ptr %24, i32 0, i32 5
  store ptr %23, ptr %25, align 8
  %26 = call ptr @list_create(ptr noundef @eio_obj_destroy)
  %27 = load ptr, ptr %4, align 8
  %28 = getelementptr inbounds nuw %struct.eio_handle_components, ptr %27, i32 0, i32 6
  store ptr %26, ptr %28, align 8
  br label %29

29:                                               ; preds = %18
  call void @llvm.lifetime.start.p0(i64 4, ptr %6) #7
  %30 = load ptr, ptr %4, align 8
  %31 = getelementptr inbounds nuw %struct.eio_handle_components, ptr %30, i32 0, i32 2
  %32 = call i32 @pthread_mutex_init(ptr noundef %31, ptr noundef null) #7
  store i32 %32, ptr %6, align 4
  %33 = load i32, ptr %6, align 4
  %34 = icmp ne i32 %33, 0
  br i1 %34, label %35, label %38

35:                                               ; preds = %29
  %36 = load i32, ptr %6, align 4
  %37 = call ptr @__errno_location() #8
  store i32 %36, ptr %37, align 4
  call void (ptr, ...) @fatal_abort(ptr noundef @.str.2, ptr noundef @__func__.eio_handle_create) #9
  unreachable

38:                                               ; preds = %29
  call void @llvm.lifetime.end.p0(i64 4, ptr %6) #7
  br label %39

39:                                               ; preds = %38
  br label %40

40:                                               ; preds = %39
  %41 = load ptr, ptr %4, align 8
  %42 = getelementptr inbounds nuw %struct.eio_handle_components, ptr %41, i32 0, i32 4
  store i16 60, ptr %42, align 8
  %43 = load i16, ptr %3, align 2
  %44 = zext i16 %43 to i32
  %45 = icmp sgt i32 %44, 0
  br i1 %45, label %46, label %50

46:                                               ; preds = %40
  %47 = load i16, ptr %3, align 2
  %48 = load ptr, ptr %4, align 8
  %49 = getelementptr inbounds nuw %struct.eio_handle_components, ptr %48, i32 0, i32 4
  store i16 %47, ptr %49, align 8
  br label %50

50:                                               ; preds = %46, %40
  %51 = load ptr, ptr %4, align 8
  store ptr %51, ptr %2, align 8
  store i32 1, ptr %5, align 4
  br label %52

52:                                               ; preds = %50, %15
  call void @llvm.lifetime.end.p0(i64 8, ptr %4) #7
  %53 = load ptr, ptr %2, align 8
  ret ptr %53
}