; Function Attrs: nounwind uwtable
define dso_local noundef ptr @eio_handle_create(i16 noundef zeroext %0) #0 {
  %2 = tail call ptr @slurm_xcalloc(i64 noundef 1, i64 noundef 88, i1 noundef zeroext true, i1 noundef zeroext false, ptr noundef nonnull @.str, i32 noundef 112, ptr noundef nonnull @__func__.eio_handle_create) #10
  store i32 925200, ptr %2, align 8
  %3 = getelementptr inbounds nuw i8, ptr %2, i64 4
  %4 = tail call i32 @pipe2(ptr noundef nonnull %3, i32 noundef 524288) #10
  %5 = icmp slt i32 %4, 0
  br i1 %5, label %6, label %8

6:                                                ; preds = %1
  %7 = tail call i32 (ptr, ...) @error(ptr noundef nonnull @.str.1, ptr noundef nonnull @__func__.eio_handle_create) #10
  tail call void @eio_handle_destroy(ptr noundef nonnull %2)
  br label %20

8:                                                ; preds = %1
  %9 = load i32, ptr %3, align 4
  tail call void @fd_set_nonblocking(i32 noundef %9) #10
  %10 = tail call ptr @list_create(ptr noundef nonnull @eio_obj_destroy) #10
  %11 = getelementptr inbounds nuw i8, ptr %2, i64 72
  store ptr %10, ptr %11, align 8
  %12 = tail call ptr @list_create(ptr noundef nonnull @eio_obj_destroy) #10
  %13 = getelementptr inbounds nuw i8, ptr %2, i64 80
  store ptr %12, ptr %13, align 8
  %14 = getelementptr inbounds nuw i8, ptr %2, i64 16
  %15 = tail call i32 @pthread_mutex_init(ptr noundef nonnull %14, ptr noundef null) #10
  %.not = icmp eq i32 %15, 0
  br i1 %.not, label %18, label %16

16:                                               ; preds = %8
  %17 = tail call ptr @__errno_location() #11
  store i32 %15, ptr %17, align 4
  tail call void (ptr, ...) @fatal_abort(ptr noundef nonnull @.str.2, ptr noundef nonnull @__func__.eio_handle_create) #12
  unreachable

18:                                               ; preds = %8
  %19 = getelementptr inbounds nuw i8, ptr %2, i64 64
  %.not15 = icmp eq i16 %0, 0
  %spec.select = select i1 %.not15, i16 60, i16 %0
  store i16 %spec.select, ptr %19, align 8
  br label %20

20:                                               ; preds = %18, %6
  %.0 = phi ptr [ null, %6 ], [ %2, %18 ]
  ret ptr %.0
}